; Function Attrs: nounwind uwtable
define dso_local range(i32 -2147483648, 1) i32 @fdt_pack(ptr noundef %0) local_unnamed_addr #0 {
  %2 = tail call i32 @fdt_ro_probe_(ptr noundef %0) #9
  %3 = icmp sgt i32 %2, -1
  br i1 %3, label %4, label %fdt_rw_probe_.exit.thread

4:                                                ; preds = %1
  %5 = getelementptr inbounds nuw i8, ptr %0, i64 20
  %6 = load i8, ptr %5, align 1
  %7 = zext i8 %6 to i32
  %8 = shl nuw i32 %7, 24
  %9 = getelementptr inbounds nuw i8, ptr %0, i64 21
  %10 = load i8, ptr %9, align 1
  %11 = zext i8 %10 to i32
  %12 = shl nuw nsw i32 %11, 16
  %13 = or disjoint i32 %12, %8
  %14 = getelementptr inbounds nuw i8, ptr %0, i64 22
  %15 = load i8, ptr %14, align 1
  %16 = zext i8 %15 to i32
  %17 = shl nuw nsw i32 %16, 8
  %18 = or disjoint i32 %13, %17
  %19 = getelementptr inbounds nuw i8, ptr %0, i64 23
  %20 = load i8, ptr %19, align 1
  %21 = zext i8 %20 to i32
  %22 = or disjoint i32 %18, %21
  %23 = icmp ult i32 %22, 17
  br i1 %23, label %fdt_rw_probe_.exit.thread, label %24

24:                                               ; preds = %4
  %25 = getelementptr inbounds nuw i8, ptr %0, i64 36
  %26 = load i8, ptr %25, align 1
  %27 = zext i8 %26 to i32
  %28 = shl nuw i32 %27, 24
  %29 = getelementptr inbounds nuw i8, ptr %0, i64 37
  %30 = load i8, ptr %29, align 1
  %31 = zext i8 %30 to i32
  %32 = shl nuw nsw i32 %31, 16
  %33 = or disjoint i32 %32, %28
  %34 = getelementptr inbounds nuw i8, ptr %0, i64 38
  %35 = load i8, ptr %34, align 1
  %36 = zext i8 %35 to i32
  %37 = shl nuw nsw i32 %36, 8
  %38 = or disjoint i32 %33, %37
  %39 = getelementptr inbounds nuw i8, ptr %0, i64 39
  %40 = load i8, ptr %39, align 1
  %41 = zext i8 %40 to i32
  %42 = or disjoint i32 %38, %41
  %43 = tail call fastcc i32 @fdt_blocks_misordered_(ptr noundef nonnull %0, i32 noundef 16, i32 noundef %42)
  %.not.i = icmp eq i32 %43, 0
  br i1 %.not.i, label %44, label %fdt_rw_probe_.exit.thread

44:                                               ; preds = %24
  %.not9.i = icmp eq i32 %22, 17
  br i1 %.not9.i, label %fdt_rw_probe_.exit, label %45

45:                                               ; preds = %44
  store i32 285212672, ptr %5, align 4
  br label %fdt_rw_probe_.exit

fdt_rw_probe_.exit:                               ; preds = %45, %44
  %46 = tail call i32 @fdt_num_mem_rsv(ptr noundef nonnull %0) #9
  %47 = shl i32 %46, 4
  %48 = add i32 %47, 16
  %49 = load i8, ptr %25, align 1
  %50 = zext i8 %49 to i32
  %51 = shl nuw i32 %50, 24
  %52 = load i8, ptr %29, align 1
  %53 = zext i8 %52 to i32
  %54 = shl nuw nsw i32 %53, 16
  %55 = or disjoint i32 %54, %51
  %56 = load i8, ptr %34, align 1
  %57 = zext i8 %56 to i32
  %58 = shl nuw nsw i32 %57, 8
  %59 = or disjoint i32 %55, %58
  %60 = load i8, ptr %39, align 1
  %61 = zext i8 %60 to i32
  %62 = or disjoint i32 %59, %61
  %63 = getelementptr inbounds nuw i8, ptr %0, i64 32
  %64 = load i8, ptr %63, align 1
  %65 = zext i8 %64 to i32
  %66 = shl nuw i32 %65, 24
  %67 = getelementptr inbounds nuw i8, ptr %0, i64 33
  %68 = load i8, ptr %67, align 1
  %69 = zext i8 %68 to i32
  %70 = shl nuw nsw i32 %69, 16
  %71 = or disjoint i32 %70, %66
  %72 = getelementptr inbounds nuw i8, ptr %0, i64 34
  %73 = load i8, ptr %72, align 1
  %74 = zext i8 %73 to i32
  %75 = shl nuw nsw i32 %74, 8
  %76 = or disjoint i32 %71, %75
  %77 = getelementptr inbounds nuw i8, ptr %0, i64 35
  %78 = load i8, ptr %77, align 1
  %79 = zext i8 %78 to i32
  %80 = or disjoint i32 %76, %79
  %81 = add i32 %47, 56
  %82 = add i32 %62, %81
  %83 = getelementptr inbounds nuw i8, ptr %0, i64 40
  %84 = getelementptr inbounds nuw i8, ptr %0, i64 16
  %85 = load i8, ptr %84, align 1
  %86 = zext i8 %85 to i64
  %87 = shl nuw nsw i64 %86, 24
  %88 = getelementptr inbounds nuw i8, ptr %0, i64 17
  %89 = load i8, ptr %88, align 1
  %90 = zext i8 %89 to i64
  %91 = shl nuw nsw i64 %90, 16
  %92 = or disjoint i64 %91, %87
  %93 = getelementptr inbounds nuw i8, ptr %0, i64 18
  %94 = load i8, ptr %93, align 1
  %95 = zext i8 %94 to i64
  %96 = shl nuw nsw i64 %95, 8
  %97 = or disjoint i64 %92, %96
  %98 = getelementptr inbounds nuw i8, ptr %0, i64 19
  %99 = load i8, ptr %98, align 1
  %100 = zext i8 %99 to i64
  %101 = or disjoint i64 %97, %100
  %102 = getelementptr inbounds nuw i8, ptr %0, i64 %101
  %103 = sext i32 %48 to i64
  tail call void @llvm.memmove.p0.p0.i64(ptr nonnull align 1 %83, ptr readonly align 1 %102, i64 %103, i1 false)
  store i32 671088640, ptr %84, align 4
  %104 = sext i32 %81 to i64
  %105 = getelementptr inbounds i8, ptr %0, i64 %104
  %106 = getelementptr inbounds nuw i8, ptr %0, i64 8
  %107 = load i8, ptr %106, align 1
  %108 = zext i8 %107 to i64
  %109 = shl nuw nsw i64 %108, 24
  %110 = getelementptr inbounds nuw i8, ptr %0, i64 9
  %111 = load i8, ptr %110, align 1
  %112 = zext i8 %111 to i64
  %113 = shl nuw nsw i64 %112, 16
  %114 = or disjoint i64 %113, %109
  %115 = getelementptr inbounds nuw i8, ptr %0, i64 10
  %116 = load i8, ptr %115, align 1
  %117 = zext i8 %116 to i64
  %118 = shl nuw nsw i64 %117, 8
  %119 = or disjoint i64 %114, %118
  %120 = getelementptr inbounds nuw i8, ptr %0, i64 11
  %121 = load i8, ptr %120, align 1
  %122 = zext i8 %121 to i64
  %123 = or disjoint i64 %119, %122
  %124 = getelementptr inbounds nuw i8, ptr %0, i64 %123
  %125 = sext i32 %62 to i64
  tail call void @llvm.memmove.p0.p0.i64(ptr nonnull align 1 %105, ptr readonly align 1 %124, i64 %125, i1 false)
  %rev.i.i.i = tail call noundef i32 @llvm.bswap.i32(i32 %81)
  store i32 %rev.i.i.i, ptr %106, align 4
  %rev.i.i28.i = tail call noundef i32 @llvm.bswap.i32(i32 %62)
  store i32 %rev.i.i28.i, ptr %25, align 4
  %126 = sext i32 %82 to i64
  %127 = getelementptr inbounds i8, ptr %0, i64 %126
  %128 = getelementptr inbounds nuw i8, ptr %0, i64 12
  %129 = load i8, ptr %128, align 1
  %130 = zext i8 %129 to i64
  %131 = shl nuw nsw i64 %130, 24
  %132 = getelementptr inbounds nuw i8, ptr %0, i64 13
  %133 = load i8, ptr %132, align 1
  %134 = zext i8 %133 to i64
  %135 = shl nuw nsw i64 %134, 16
  %136 = or disjoint i64 %135, %131
  %137 = getelementptr inbounds nuw i8, ptr %0, i64 14
  %138 = load i8, ptr %137, align 1
  %139 = zext i8 %138 to i64
  %140 = shl nuw nsw i64 %139, 8
  %141 = or disjoint i64 %136, %140
  %142 = getelementptr inbounds nuw i8, ptr %0, i64 15
  %143 = load i8, ptr %142, align 1
  %144 = zext i8 %143 to i64
  %145 = or disjoint i64 %141, %144
  %146 = getelementptr inbounds nuw i8, ptr %0, i64 %145
  %147 = sext i32 %80 to i64
  tail call void @llvm.memmove.p0.p0.i64(ptr align 1 %127, ptr readonly align 1 %146, i64 %147, i1 false)
  %rev.i.i29.i = tail call noundef i32 @llvm.bswap.i32(i32 %82)
  store i32 %rev.i.i29.i, ptr %128, align 4
  %148 = load i8, ptr %63, align 1
  %149 = zext i8 %148 to i32
  %150 = shl nuw i32 %149, 24
  %151 = load i8, ptr %67, align 1
  %152 = zext i8 %151 to i32
  %153 = shl nuw nsw i32 %152, 16
  %154 = or disjoint i32 %153, %150
  %155 = load i8, ptr %72, align 1
  %156 = zext i8 %155 to i32
  %157 = shl nuw nsw i32 %156, 8
  %158 = or disjoint i32 %154, %157
  %159 = load i8, ptr %77, align 1
  %160 = zext i8 %159 to i32
  %161 = or disjoint i32 %158, %160
  %rev.i.i30.i = tail call noundef i32 @llvm.bswap.i32(i32 %161)
  store i32 %rev.i.i30.i, ptr %63, align 4
  %162 = shl i32 %rev.i.i29.i, 24
  %163 = shl i32 %rev.i.i29.i, 8
  %164 = and i32 %163, 16711680
  %165 = or disjoint i32 %164, %162
  %166 = lshr i32 %rev.i.i29.i, 8
  %167 = and i32 %166, 65280
  %168 = or disjoint i32 %165, %167
  %169 = lshr i32 %rev.i.i29.i, 24
  %170 = or disjoint i32 %168, %169
  %171 = shl i32 %rev.i.i30.i, 24
  %172 = shl i32 %rev.i.i30.i, 8
  %173 = and i32 %172, 16711680
  %174 = or disjoint i32 %173, %171
  %175 = lshr i32 %rev.i.i30.i, 8
  %176 = and i32 %175, 65280
  %177 = or disjoint i32 %174, %176
  %178 = lshr i32 %rev.i.i30.i, 24
  %179 = or disjoint i32 %177, %178
  %180 = add i32 %179, %170
  %rev.i.i = tail call noundef i32 @llvm.bswap.i32(i32 %180)
  %181 = getelementptr inbounds nuw i8, ptr %0, i64 4
  store i32 %rev.i.i, ptr %181, align 4
  br label %fdt_rw_probe_.exit.thread

fdt_rw_probe_.exit.thread:                        ; preds = %24, %4, %1, %fdt_rw_probe_.exit
  %.1 = phi i32 [ 0, %fdt_rw_probe_.exit ], [ -12, %24 ], [ -10, %4 ], [ %2, %1 ]
  ret i32 %.1
}